target datalayout = "e-m:e-p270:32:32-p271:32:32-p272:64:64-i64:64-i128:128-f80:128-n8:16:32:64-S128"
target triple = "x86_64-pc-linux-gnu"

%struct.cli_events = type { ptr, %struct.cli_event, i64, i32, i32 }
%struct.cli_event = type { ptr, %union.ev_val, i32, i16 }
%union.ev_val = type { ptr }

@.str = private unnamed_addr constant [7 x i8] c"errors\00", align 1

; Function Attrs: nounwind uwtable
define ptr @cli_events_new(i32 noundef %0) #0 {
  %2 = alloca ptr, align 8
  %3 = alloca i32, align 4
  %4 = alloca ptr, align 8
  %5 = alloca i32, align 4
  store i32 %0, ptr %3, align 4, !tbaa !3
  call void @llvm.lifetime.start.p0(i64 8, ptr %4) #8
  %6 = call noalias ptr @calloc(i64 noundef 1, i64 noundef 48) #9
  store ptr %6, ptr %4, align 8, !tbaa !7
  %7 = load ptr, ptr %4, align 8, !tbaa !7
  %8 = icmp ne ptr %7, null
  br i1 %8, label %10, label %9

9:                                                ; preds = %1
  store ptr null, ptr %2, align 8
  store i32 1, ptr %5, align 4
  br label %42

10:                                               ; preds = %1
  %11 = load i32, ptr %3, align 4, !tbaa !3
  %12 = load ptr, ptr %4, align 8, !tbaa !7
  %13 = getelementptr inbounds nuw %struct.cli_events, ptr %12, i32 0, i32 3
  store i32 %11, ptr %13, align 8, !tbaa !10
  %14 = load i32, ptr %3, align 4, !tbaa !3
  %15 = zext i32 %14 to i64
  %16 = call noalias ptr @calloc(i64 noundef %15, i64 noundef 24) #9
  %17 = load ptr, ptr %4, align 8, !tbaa !7
  %18 = getelementptr inbounds nuw %struct.cli_events, ptr %17, i32 0, i32 0
  store ptr %16, ptr %18, align 8, !tbaa !16
  %19 = load ptr, ptr %4, align 8, !tbaa !7
  %20 = getelementptr inbounds nuw %struct.cli_events, ptr %19, i32 0, i32 0
  %21 = load ptr, ptr %20, align 8, !tbaa !16
  %22 = icmp ne ptr %21, null
  br i1 %22, label %25, label %23

23:                                               ; preds = %10
  %24 = load ptr, ptr %4, align 8, !tbaa !7
  call void @free(ptr noundef %24) #8
  store ptr null, ptr %2, align 8
  store i32 1, ptr %5, align 4
  br label %42

25:                                               ; preds = %10
  %26 = load ptr, ptr %4, align 8, !tbaa !7
  %27 = getelementptr inbounds nuw %struct.cli_events, ptr %26, i32 0, i32 1
  %28 = getelementptr inbounds nuw %struct.cli_event, ptr %27, i32 0, i32 0
  store ptr @.str, ptr %28, align 8, !tbaa !17
  %29 = load ptr, ptr %4, align 8, !tbaa !7
  %30 = getelementptr inbounds nuw %struct.cli_events, ptr %29, i32 0, i32 1
  %31 = getelementptr inbounds nuw %struct.cli_event, ptr %30, i32 0, i32 3
  %32 = load i16, ptr %31, align 4
  %33 = and i16 %32, -256
  %34 = or i16 %33, 1
  store i16 %34, ptr %31, align 4
  %35 = load ptr, ptr %4, align 8, !tbaa !7
  %36 = getelementptr inbounds nuw %struct.cli_events, ptr %35, i32 0, i32 1
  %37 = getelementptr inbounds nuw %struct.cli_event, ptr %36, i32 0, i32 3
  %38 = load i16, ptr %37, align 4
  %39 = and i16 %38, 255
  %40 = or i16 %39, 256
  store i16 %40, ptr %37, align 4
  %41 = load ptr, ptr %4, align 8, !tbaa !7
  store ptr %41, ptr %2, align 8
  store i32 1, ptr %5, align 4
  br label %42

42:                                               ; preds = %25, %23, %9
  call void @llvm.lifetime.end.p0(i64 8, ptr %4) #8
  %43 = load ptr, ptr %2, align 8
  ret ptr %43
}