; Function Attrs: mustprogress nounwind willreturn memory(readwrite, argmem: none) uwtable
define noalias noundef ptr @cli_events_new(i32 noundef %0) local_unnamed_addr #0 {
  %2 = tail call noalias dereferenceable_or_null(48) ptr @calloc(i64 noundef 1, i64 noundef 48) #13
  %.not = icmp eq ptr %2, null
  br i1 %.not, label %11, label %3

3:                                                ; preds = %1
  %4 = getelementptr inbounds nuw i8, ptr %2, i64 40
  store i32 %0, ptr %4, align 8, !tbaa !3
  %5 = zext i32 %0 to i64
  %6 = tail call noalias ptr @calloc(i64 noundef %5, i64 noundef 24) #13
  store ptr %6, ptr %2, align 8, !tbaa !13
  %.not12 = icmp eq ptr %6, null
  br i1 %.not12, label %7, label %8

7:                                                ; preds = %3
  tail call void @free(ptr noundef nonnull %2) #14
  br label %11

8:                                                ; preds = %3
  %9 = getelementptr inbounds nuw i8, ptr %2, i64 8
  store ptr @.str, ptr %9, align 8, !tbaa !14
  %10 = getelementptr inbounds nuw i8, ptr %2, i64 28
  store i16 257, ptr %10, align 4
  br label %11

11:                                               ; preds = %1, %8, %7
  %.0 = phi ptr [ %2, %8 ], [ null, %7 ], [ null, %1 ]
  ret ptr %.0
}